; Function Attrs: mustprogress uwtable
define hidden void @_ZN6Assimp18ZipArchiveIOSystem9ImplementC2EPNS_8IOSystemEPKcS5_(ptr noundef nonnull align 8 dereferenceable(56) %this, ptr noundef %pIOHandler, ptr noundef %pFilename, ptr noundef readnone %pMode) unnamed_addr #2 align 2 personality ptr @__gxx_personality_v0 {
entry:
  %mapping = alloca %struct.zlib_filefunc_def_s, align 8
  store ptr null, ptr %this, align 8
  %0 = getelementptr inbounds i8, ptr %this, i64 16
  store i32 0, ptr %0, align 8
  %_M_parent.i.i.i.i.i = getelementptr inbounds i8, ptr %this, i64 24
  store ptr null, ptr %_M_parent.i.i.i.i.i, align 8
  %_M_left.i.i.i.i.i = getelementptr inbounds i8, ptr %this, i64 32
  store ptr %0, ptr %_M_left.i.i.i.i.i, align 8
  %_M_right.i.i.i.i.i = getelementptr inbounds i8, ptr %this, i64 40
  store ptr %0, ptr %_M_right.i.i.i.i.i, align 8
  %_M_node_count.i.i.i.i.i = getelementptr inbounds i8, ptr %this, i64 48
  store i64 0, ptr %_M_node_count.i.i.i.i.i, align 8
  %1 = load i8, ptr %pFilename, align 1
  %cmp = icmp eq i8 %1, 0
  %cmp2 = icmp eq ptr %pMode, null
  %or.cond = or i1 %cmp2, %cmp
  br i1 %or.cond, label %return, label %if.end

if.end:                                           ; preds = %entry
  store ptr @_ZN6Assimp14IOSystem2Unzip4openEPvPKci, ptr %mapping, align 8, !alias.scope !7
  %zread_file.i = getelementptr inbounds i8, ptr %mapping, i64 8
  store ptr @_ZN6Assimp14IOSystem2Unzip4readEPvS1_S1_m, ptr %zread_file.i, align 8, !alias.scope !7
  %zwrite_file.i = getelementptr inbounds i8, ptr %mapping, i64 16
  store ptr @_ZN6Assimp14IOSystem2Unzip5writeEPvS1_PKvm, ptr %zwrite_file.i, align 8, !alias.scope !7
  %ztell_file.i = getelementptr inbounds i8, ptr %mapping, i64 24
  store ptr @_ZN6Assimp14IOSystem2Unzip4tellEPvS1_, ptr %ztell_file.i, align 8, !alias.scope !7
  %zseek_file.i = getelementptr inbounds i8, ptr %mapping, i64 32
  store ptr @_ZN6Assimp14IOSystem2Unzip4seekEPvS1_mi, ptr %zseek_file.i, align 8, !alias.scope !7
  %zclose_file.i = getelementptr inbounds i8, ptr %mapping, i64 40
  store ptr @_ZN6Assimp14IOSystem2Unzip5closeEPvS1_, ptr %zclose_file.i, align 8, !alias.scope !7
  %zerror_file.i = getelementptr inbounds i8, ptr %mapping, i64 48
  store ptr @_ZN6Assimp14IOSystem2Unzip9testerrorEPvS1_, ptr %zerror_file.i, align 8, !alias.scope !7
  %opaque.i = getelementptr inbounds i8, ptr %mapping, i64 56
  store ptr %pIOHandler, ptr %opaque.i, align 8, !alias.scope !7
  %call = invoke ptr @unzOpen2(ptr noundef nonnull %pFilename, ptr noundef nonnull %mapping)
          to label %invoke.cont unwind label %lpad

invoke.cont:                                      ; preds = %if.end
  store ptr %call, ptr %this, align 8
  br label %return

return:                                           ; preds = %entry, %invoke.cont
  ret void

lpad:                                             ; preds = %if.end
  %2 = landingpad { ptr, i32 }
          cleanup
  %m_ArchiveMap = getelementptr inbounds i8, ptr %this, i64 8
  call void @_ZNSt3mapINSt7__cxx1112basic_stringIcSt11char_traitsIcESaIcEEEN6Assimp11ZipFileInfoESt4lessIS5_ESaISt4pairIKS5_S7_EEED2Ev(ptr noundef nonnull align 8 dereferenceable(48) %m_ArchiveMap) #28
  resume { ptr, i32 } %2
}